target datalayout = "e-m:e-p270:32:32-p271:32:32-p272:64:64-i64:64-i128:128-f80:128-n8:16:32:64-S128"
target triple = "x86_64-pc-linux-gnu"

%"class.pxrInternal_v0_24__pxrReserved__::Usd_PrimFlagsConjunction" = type { %"class.pxrInternal_v0_24__pxrReserved__::Usd_PrimFlagsPredicate.base", [7 x i8] }
%"class.pxrInternal_v0_24__pxrReserved__::Usd_PrimFlagsPredicate.base" = type <{ %"class.std::bitset", %"class.std::bitset", i8 }>
%"class.std::bitset" = type { %"struct.std::_Base_bitset" }
%"struct.std::_Base_bitset" = type { i64 }
%"class.std::set" = type { %"class.std::_Rb_tree" }
%"class.std::_Rb_tree" = type { %"struct.std::_Rb_tree<pxrInternal_v0_24__pxrReserved__::SdfPath, pxrInternal_v0_24__pxrReserved__::SdfPath, std::_Identity<pxrInternal_v0_24__pxrReserved__::SdfPath>, std::less<pxrInternal_v0_24__pxrReserved__::SdfPath>>::_Rb_tree_impl" }
%"struct.std::_Rb_tree<pxrInternal_v0_24__pxrReserved__::SdfPath, pxrInternal_v0_24__pxrReserved__::SdfPath, std::_Identity<pxrInternal_v0_24__pxrReserved__::SdfPath>, std::less<pxrInternal_v0_24__pxrReserved__::SdfPath>>::_Rb_tree_impl" = type { [8 x i8], %"struct.std::_Rb_tree_header" }
%"struct.std::_Rb_tree_header" = type { %"struct.std::_Rb_tree_node_base", i64 }
%"struct.std::_Rb_tree_node_base" = type { i32, ptr, ptr, ptr }
%"struct.std::_Rb_tree_const_iterator" = type { ptr }
%"class.std::insert_iterator" = type { ptr, %"struct.std::_Rb_tree_const_iterator" }
%"class.pxrInternal_v0_24__pxrReserved__::UsdImaging_CollectionCache" = type { %"class.std::unordered_map.13", %"class.std::unordered_map.31", %"class.std::unordered_map", %"class.std::unordered_map.49", %"class.std::set", %"class.std::mutex" }
%"class.std::unordered_map.13" = type { %"class.std::_Hashtable.14" }
%"class.std::_Hashtable.14" = type { ptr, i64, %"struct.std::__detail::_Hash_node_base", i64, %"struct.std::__detail::_Prime_rehash_policy", ptr }
%"struct.std::__detail::_Hash_node_base" = type { ptr }
%"struct.std::__detail::_Prime_rehash_policy" = type { float, i64 }
%"class.std::unordered_map.31" = type { %"class.std::_Hashtable.32" }
%"class.std::_Hashtable.32" = type { ptr, i64, %"struct.std::__detail::_Hash_node_base", i64, %"struct.std::__detail::_Prime_rehash_policy", ptr }
%"class.std::unordered_map" = type { %"class.std::_Hashtable" }
%"class.std::_Hashtable" = type { ptr, i64, %"struct.std::__detail::_Hash_node_base", i64, %"struct.std::__detail::_Prime_rehash_policy", ptr }
%"class.std::unordered_map.49" = type { %"class.std::_Hashtable.50" }
%"class.std::_Hashtable.50" = type { ptr, i64, %"struct.std::__detail::_Hash_node_base", i64, %"struct.std::__detail::_Prime_rehash_policy", ptr }
%"class.std::mutex" = type { %"class.std::__mutex_base" }
%"class.std::__mutex_base" = type { %union.pthread_mutex_t }
%union.pthread_mutex_t = type { %struct.__pthread_mutex_s }
%struct.__pthread_mutex_s = type { i32, i32, i32, i32, i32, i16, i16, %struct.__pthread_internal_list }
%struct.__pthread_internal_list = type { ptr, ptr }

@_ZN32pxrInternal_v0_24__pxrReserved__23UsdPrimDefaultPredicateE = external global %"class.pxrInternal_v0_24__pxrReserved__::Usd_PrimFlagsConjunction", align 8

; Function Attrs: mustprogress nounwind uwtable
define linkonce_odr void @_ZNSt23_Rb_tree_const_iteratorIN32pxrInternal_v0_24__pxrReserved__7SdfPathEEC2EPKSt18_Rb_tree_node_base(ptr noundef nonnull align 8 dereferenceable(8) %0, ptr noundef %1) unnamed_addr #2 comdat align 2 {
  %3 = alloca ptr, align 8
  %4 = alloca ptr, align 8
  store ptr %0, ptr %3, align 8
  store ptr %1, ptr %4, align 8
  %5 = load ptr, ptr %3, align 8
  %6 = getelementptr inbounds nuw %"struct.std::_Rb_tree_const_iterator", ptr %5, i32 0, i32 0
  %7 = load ptr, ptr %4, align 8
  store ptr %7, ptr %6, align 8
  ret void
}

; Function Attrs: mustprogress nounwind uwtable
define linkonce_odr void @_ZN9__gnu_cxx5__ops16__iter_less_iterEv() #2 comdat {
  ret void
}

; Function Attrs: mustprogress nounwind uwtable
define linkonce_odr void @_ZNSt15insert_iteratorISt3setIN32pxrInternal_v0_24__pxrReserved__7SdfPathESt4lessIS2_ESaIS2_EEEC2ERS6_St23_Rb_tree_const_iteratorIS2_E(ptr noundef nonnull align 8 dereferenceable(16) %0, ptr noundef nonnull align 8 dereferenceable(48) %1, ptr %2) unnamed_addr #2 comdat align 2 {
  %4 = alloca %"struct.std::_Rb_tree_const_iterator", align 8
  %5 = alloca ptr, align 8
  %6 = alloca ptr, align 8
  %7 = getelementptr inbounds nuw %"struct.std::_Rb_tree_const_iterator", ptr %4, i32 0, i32 0
  store ptr %2, ptr %7, align 8
  store ptr %0, ptr %5, align 8
  store ptr %1, ptr %6, align 8
  %8 = load ptr, ptr %5, align 8
  %9 = getelementptr inbounds nuw %"class.std::insert_iterator", ptr %8, i32 0, i32 0
  %10 = load ptr, ptr %6, align 8
  store ptr %10, ptr %9, align 8
  %11 = getelementptr inbounds nuw %"class.std::insert_iterator", ptr %8, i32 0, i32 1
  call void @llvm.memcpy.p0.p0.i64(ptr align 8 %11, ptr align 8 %4, i64 8, i1 false)
  ret void
}

; Function Attrs: mustprogress nounwind uwtable
define linkonce_odr ptr @_ZNKSt8_Rb_treeIN32pxrInternal_v0_24__pxrReserved__7SdfPathES1_St9_IdentityIS1_ESt4lessIS1_ESaIS1_EE3endEv(ptr noundef nonnull align 8 dereferenceable(48) %0) #2 comdat align 2 {
  %2 = alloca %"struct.std::_Rb_tree_const_iterator", align 8
  %3 = alloca ptr, align 8
  store ptr %0, ptr %3, align 8
  %4 = load ptr, ptr %3, align 8
  %5 = getelementptr inbounds nuw %"class.std::_Rb_tree", ptr %4, i32 0, i32 0
  %6 = getelementptr inbounds i8, ptr %5, i64 8
  %7 = getelementptr inbounds nuw %"struct.std::_Rb_tree_header", ptr %6, i32 0, i32 0
  call void @_ZNSt23_Rb_tree_const_iteratorIN32pxrInternal_v0_24__pxrReserved__7SdfPathEEC2EPKSt18_Rb_tree_node_base(ptr noundef nonnull align 8 dereferenceable(8) %2, ptr noundef %7) #12
  %8 = getelementptr inbounds nuw %"struct.std::_Rb_tree_const_iterator", ptr %2, i32 0, i32 0
  %9 = load ptr, ptr %8, align 8
  ret ptr %9
}

; Function Attrs: mustprogress nounwind uwtable
define linkonce_odr ptr @_ZNKSt8_Rb_treeIN32pxrInternal_v0_24__pxrReserved__7SdfPathES1_St9_IdentityIS1_ESt4lessIS1_ESaIS1_EE5beginEv(ptr noundef nonnull align 8 dereferenceable(48) %0) #2 comdat align 2 {
  %2 = alloca %"struct.std::_Rb_tree_const_iterator", align 8
  %3 = alloca ptr, align 8
  store ptr %0, ptr %3, align 8
  %4 = load ptr, ptr %3, align 8
  %5 = getelementptr inbounds nuw %"class.std::_Rb_tree", ptr %4, i32 0, i32 0
  %6 = getelementptr inbounds i8, ptr %5, i64 8
  %7 = getelementptr inbounds nuw %"struct.std::_Rb_tree_header", ptr %6, i32 0, i32 0
  %8 = getelementptr inbounds nuw %"struct.std::_Rb_tree_node_base", ptr %7, i32 0, i32 2
  %9 = load ptr, ptr %8, align 8
  call void @_ZNSt23_Rb_tree_const_iteratorIN32pxrInternal_v0_24__pxrReserved__7SdfPathEEC2EPKSt18_Rb_tree_node_base(ptr noundef nonnull align 8 dereferenceable(8) %2, ptr noundef %9) #12
  %10 = getelementptr inbounds nuw %"struct.std::_Rb_tree_const_iterator", ptr %2, i32 0, i32 0
  %11 = load ptr, ptr %10, align 8
  ret ptr %11
}

; Function Attrs: mustprogress uwtable
define linkonce_odr { ptr, ptr } @_ZSt5mergeISt23_Rb_tree_const_iteratorIN32pxrInternal_v0_24__pxrReserved__7SdfPathEES3_St15insert_iteratorISt3setIS2_St4lessIS2_ESaIS2_EEEET1_T_SC_T0_SD_SB_(ptr %0, ptr %1, ptr %2, ptr %3, ptr %4, ptr %5) #0 comdat {
  %7 = alloca %"class.std::insert_iterator", align 8
  %8 = alloca %"struct.std::_Rb_tree_const_iterator", align 8
  %9 = alloca %"struct.std::_Rb_tree_const_iterator", align 8
  %10 = alloca %"struct.std::_Rb_tree_const_iterator", align 8
  %11 = alloca %"struct.std::_Rb_tree_const_iterator", align 8
  %12 = alloca %"class.std::insert_iterator", align 8
  %13 = alloca %"struct.std::_Rb_tree_const_iterator", align 8
  %14 = alloca %"struct.std::_Rb_tree_const_iterator", align 8
  %15 = alloca %"struct.std::_Rb_tree_const_iterator", align 8
  %16 = alloca %"struct.std::_Rb_tree_const_iterator", align 8
  %17 = alloca %"class.std::insert_iterator", align 8
  %18 = getelementptr inbounds nuw %"struct.std::_Rb_tree_const_iterator", ptr %8, i32 0, i32 0
  store ptr %0, ptr %18, align 8
  %19 = getelementptr inbounds nuw %"struct.std::_Rb_tree_const_iterator", ptr %9, i32 0, i32 0
  store ptr %1, ptr %19, align 8
  %20 = getelementptr inbounds nuw %"struct.std::_Rb_tree_const_iterator", ptr %10, i32 0, i32 0
  store ptr %2, ptr %20, align 8
  %21 = getelementptr inbounds nuw %"struct.std::_Rb_tree_const_iterator", ptr %11, i32 0, i32 0
  store ptr %3, ptr %21, align 8
  %22 = getelementptr inbounds nuw { ptr, ptr }, ptr %12, i32 0, i32 0
  store ptr %4, ptr %22, align 8
  %23 = getelementptr inbounds nuw { ptr, ptr }, ptr %12, i32 0, i32 1
  store ptr %5, ptr %23, align 8
  call void @llvm.memcpy.p0.p0.i64(ptr align 8 %13, ptr align 8 %8, i64 8, i1 false)
  call void @llvm.memcpy.p0.p0.i64(ptr align 8 %14, ptr align 8 %9, i64 8, i1 false)
  call void @llvm.memcpy.p0.p0.i64(ptr align 8 %15, ptr align 8 %10, i64 8, i1 false)
  call void @llvm.memcpy.p0.p0.i64(ptr align 8 %16, ptr align 8 %11, i64 8, i1 false)
  call void @llvm.memcpy.p0.p0.i64(ptr align 8 %17, ptr align 8 %12, i64 16, i1 false)
  call void @_ZN9__gnu_cxx5__ops16__iter_less_iterEv()
  %24 = getelementptr inbounds nuw %"struct.std::_Rb_tree_const_iterator", ptr %13, i32 0, i32 0
  %25 = load ptr, ptr %24, align 8
  %26 = getelementptr inbounds nuw %"struct.std::_Rb_tree_const_iterator", ptr %14, i32 0, i32 0
  %27 = load ptr, ptr %26, align 8
  %28 = getelementptr inbounds nuw %"struct.std::_Rb_tree_const_iterator", ptr %15, i32 0, i32 0
  %29 = load ptr, ptr %28, align 8
  %30 = getelementptr inbounds nuw %"struct.std::_Rb_tree_const_iterator", ptr %16, i32 0, i32 0
  %31 = load ptr, ptr %30, align 8
  %32 = getelementptr inbounds nuw { ptr, ptr }, ptr %17, i32 0, i32 0
  %33 = load ptr, ptr %32, align 8
  %34 = getelementptr inbounds nuw { ptr, ptr }, ptr %17, i32 0, i32 1
  %35 = load ptr, ptr %34, align 8
  %36 = call { ptr, ptr } @_ZSt7__mergeISt23_Rb_tree_const_iteratorIN32pxrInternal_v0_24__pxrReserved__7SdfPathEES3_St15insert_iteratorISt3setIS2_St4lessIS2_ESaIS2_EEEN9__gnu_cxx5__ops15_Iter_less_iterEET1_T_SF_T0_SG_SE_T2_(ptr %25, ptr %27, ptr %29, ptr %31, ptr %33, ptr %35)
  %37 = getelementptr inbounds nuw { ptr, ptr }, ptr %7, i32 0, i32 0
  %38 = extractvalue { ptr, ptr } %36, 0
  store ptr %38, ptr %37, align 8
  %39 = getelementptr inbounds nuw { ptr, ptr }, ptr %7, i32 0, i32 1
  %40 = extractvalue { ptr, ptr } %36, 1
  store ptr %40, ptr %39, align 8
  %41 = load { ptr, ptr }, ptr %7, align 8
  ret { ptr, ptr } %41
}

; Function Attrs: mustprogress uwtable
define linkonce_odr { ptr, ptr } @_ZSt8inserterISt3setIN32pxrInternal_v0_24__pxrReserved__7SdfPathESt4lessIS2_ESaIS2_EEESt15insert_iteratorIT_ERS8_NS8_8iteratorE(ptr noundef nonnull align 8 dereferenceable(48) %0, ptr %1) #0 comdat {
  %3 = alloca %"class.std::insert_iterator", align 8
  %4 = alloca %"struct.std::_Rb_tree_const_iterator", align 8
  %5 = alloca ptr, align 8
  %6 = alloca %"struct.std::_Rb_tree_const_iterator", align 8
  %7 = getelementptr inbounds nuw %"struct.std::_Rb_tree_const_iterator", ptr %4, i32 0, i32 0
  store ptr %1, ptr %7, align 8
  store ptr %0, ptr %5, align 8
  %8 = load ptr, ptr %5, align 8
  call void @llvm.memcpy.p0.p0.i64(ptr align 8 %6, ptr align 8 %4, i64 8, i1 false)
  %9 = getelementptr inbounds nuw %"struct.std::_Rb_tree_const_iterator", ptr %6, i32 0, i32 0
  %10 = load ptr, ptr %9, align 8
  call void @_ZNSt15insert_iteratorISt3setIN32pxrInternal_v0_24__pxrReserved__7SdfPathESt4lessIS2_ESaIS2_EEEC2ERS6_St23_Rb_tree_const_iteratorIS2_E(ptr noundef nonnull align 8 dereferenceable(16) %3, ptr noundef nonnull align 8 dereferenceable(48) %8, ptr %10)
  %11 = load { ptr, ptr }, ptr %3, align 8
  ret { ptr, ptr } %11
}

; Function Attrs: mustprogress nounwind uwtable
define linkonce_odr ptr @_ZNKSt3setIN32pxrInternal_v0_24__pxrReserved__7SdfPathESt4lessIS1_ESaIS1_EE3endEv(ptr noundef nonnull align 8 dereferenceable(48) %0) #2 comdat align 2 {
  %2 = alloca %"struct.std::_Rb_tree_const_iterator", align 8
  %3 = alloca ptr, align 8
  store ptr %0, ptr %3, align 8
  %4 = load ptr, ptr %3, align 8
  %5 = getelementptr inbounds nuw %"class.std::set", ptr %4, i32 0, i32 0
  %6 = call ptr @_ZNKSt8_Rb_treeIN32pxrInternal_v0_24__pxrReserved__7SdfPathES1_St9_IdentityIS1_ESt4lessIS1_ESaIS1_EE3endEv(ptr noundef nonnull align 8 dereferenceable(48) %5) #12
  %7 = getelementptr inbounds nuw %"struct.std::_Rb_tree_const_iterator", ptr %2, i32 0, i32 0
  store ptr %6, ptr %7, align 8
  %8 = getelementptr inbounds nuw %"struct.std::_Rb_tree_const_iterator", ptr %2, i32 0, i32 0
  %9 = load ptr, ptr %8, align 8
  ret ptr %9
}

; Function Attrs: mustprogress nounwind uwtable
define linkonce_odr ptr @_ZNKSt3setIN32pxrInternal_v0_24__pxrReserved__7SdfPathESt4lessIS1_ESaIS1_EE5beginEv(ptr noundef nonnull align 8 dereferenceable(48) %0) #2 comdat align 2 {
  %2 = alloca %"struct.std::_Rb_tree_const_iterator", align 8
  %3 = alloca ptr, align 8
  store ptr %0, ptr %3, align 8
  %4 = load ptr, ptr %3, align 8
  %5 = getelementptr inbounds nuw %"class.std::set", ptr %4, i32 0, i32 0
  %6 = call ptr @_ZNKSt8_Rb_treeIN32pxrInternal_v0_24__pxrReserved__7SdfPathES1_St9_IdentityIS1_ESt4lessIS1_ESaIS1_EE5beginEv(ptr noundef nonnull align 8 dereferenceable(48) %5) #12
  %7 = getelementptr inbounds nuw %"struct.std::_Rb_tree_const_iterator", ptr %2, i32 0, i32 0
  store ptr %6, ptr %7, align 8
  %8 = getelementptr inbounds nuw %"struct.std::_Rb_tree_const_iterator", ptr %2, i32 0, i32 0
  %9 = load ptr, ptr %8, align 8
  ret ptr %9
}

; Function Attrs: mustprogress uwtable
define void @_ZN32pxrInternal_v0_24__pxrReserved__26UsdImaging_CollectionCache27_MarkCollectionContentDirtyERKNS_9TfWeakPtrINS_8UsdStageEEERKNS_29Usd_CollectionMembershipQueryINS_38UsdObjectCollectionExpressionEvaluatorEEE(ptr noundef nonnull align 8 dereferenceable(312) %0, ptr noundef nonnull align 8 dereferenceable(16) %1, ptr noundef nonnull align 8 dereferenceable(184) %2) #0 align 2 personality ptr @__gxx_personality_v0 {
  %4 = alloca ptr, align 8
  %5 = alloca ptr, align 8
  %6 = alloca ptr, align 8
  %7 = alloca %"class.std::set", align 8
  %8 = alloca %"struct.std::_Rb_tree_const_iterator", align 8
  %9 = alloca %"struct.std::_Rb_tree_const_iterator", align 8
  %10 = alloca %"struct.std::_Rb_tree_const_iterator", align 8
  %11 = alloca %"struct.std::_Rb_tree_const_iterator", align 8
  %12 = alloca %"class.std::insert_iterator", align 8
  %13 = alloca %"struct.std::_Rb_tree_const_iterator", align 8
  %14 = alloca ptr, align 8
  %15 = alloca i32, align 4
  %16 = alloca %"class.std::insert_iterator", align 8
  store ptr %0, ptr %4, align 8
  store ptr %1, ptr %5, align 8
  store ptr %2, ptr %6, align 8
  %17 = load ptr, ptr %4, align 8
  %18 = load ptr, ptr %6, align 8
  %19 = load ptr, ptr %5, align 8
  call void @_ZN32pxrInternal_v0_24__pxrReserved__37UsdComputeIncludedPathsFromCollectionERKNS_29Usd_CollectionMembershipQueryINS_38UsdObjectCollectionExpressionEvaluatorEEERKNS_9TfWeakPtrINS_8UsdStageEEERKNS_22Usd_PrimFlagsPredicateE(ptr dead_on_unwind writable sret(%"class.std::set") align 8 %7, ptr noundef nonnull align 8 dereferenceable(184) %18, ptr noundef nonnull align 8 dereferenceable(16) %19, ptr noundef nonnull align 8 dereferenceable(17) @_ZN32pxrInternal_v0_24__pxrReserved__23UsdPrimDefaultPredicateE)
  %20 = getelementptr inbounds nuw %"class.pxrInternal_v0_24__pxrReserved__::UsdImaging_CollectionCache", ptr %17, i32 0, i32 4
  %21 = call ptr @_ZNKSt3setIN32pxrInternal_v0_24__pxrReserved__7SdfPathESt4lessIS1_ESaIS1_EE5beginEv(ptr noundef nonnull align 8 dereferenceable(48) %20) #12
  %22 = getelementptr inbounds nuw %"struct.std::_Rb_tree_const_iterator", ptr %8, i32 0, i32 0
  store ptr %21, ptr %22, align 8
  %23 = getelementptr inbounds nuw %"class.pxrInternal_v0_24__pxrReserved__::UsdImaging_CollectionCache", ptr %17, i32 0, i32 4
  %24 = call ptr @_ZNKSt3setIN32pxrInternal_v0_24__pxrReserved__7SdfPathESt4lessIS1_ESaIS1_EE3endEv(ptr noundef nonnull align 8 dereferenceable(48) %23) #12
  %25 = getelementptr inbounds nuw %"struct.std::_Rb_tree_const_iterator", ptr %9, i32 0, i32 0
  store ptr %24, ptr %25, align 8
  %26 = call ptr @_ZNKSt3setIN32pxrInternal_v0_24__pxrReserved__7SdfPathESt4lessIS1_ESaIS1_EE5beginEv(ptr noundef nonnull align 8 dereferenceable(48) %7) #12
  %27 = getelementptr inbounds nuw %"struct.std::_Rb_tree_const_iterator", ptr %10, i32 0, i32 0
  store ptr %26, ptr %27, align 8
  %28 = call ptr @_ZNKSt3setIN32pxrInternal_v0_24__pxrReserved__7SdfPathESt4lessIS1_ESaIS1_EE3endEv(ptr noundef nonnull align 8 dereferenceable(48) %7) #12
  %29 = getelementptr inbounds nuw %"struct.std::_Rb_tree_const_iterator", ptr %11, i32 0, i32 0
  store ptr %28, ptr %29, align 8
  %30 = getelementptr inbounds nuw %"class.pxrInternal_v0_24__pxrReserved__::UsdImaging_CollectionCache", ptr %17, i32 0, i32 4
  %31 = getelementptr inbounds nuw %"class.pxrInternal_v0_24__pxrReserved__::UsdImaging_CollectionCache", ptr %17, i32 0, i32 4
  %32 = call ptr @_ZNKSt3setIN32pxrInternal_v0_24__pxrReserved__7SdfPathESt4lessIS1_ESaIS1_EE5beginEv(ptr noundef nonnull align 8 dereferenceable(48) %31) #12
  %33 = getelementptr inbounds nuw %"struct.std::_Rb_tree_const_iterator", ptr %13, i32 0, i32 0
  store ptr %32, ptr %33, align 8
  %34 = getelementptr inbounds nuw %"struct.std::_Rb_tree_const_iterator", ptr %13, i32 0, i32 0
  %35 = load ptr, ptr %34, align 8
  %36 = invoke { ptr, ptr } @_ZSt8inserterISt3setIN32pxrInternal_v0_24__pxrReserved__7SdfPathESt4lessIS2_ESaIS2_EEESt15insert_iteratorIT_ERS8_NS8_8iteratorE(ptr noundef nonnull align 8 dereferenceable(48) %30, ptr %35)
          to label %37 unwind label %60

37:                                               ; preds = %3
  %38 = getelementptr inbounds nuw { ptr, ptr }, ptr %12, i32 0, i32 0
  %39 = extractvalue { ptr, ptr } %36, 0
  store ptr %39, ptr %38, align 8
  %40 = getelementptr inbounds nuw { ptr, ptr }, ptr %12, i32 0, i32 1
  %41 = extractvalue { ptr, ptr } %36, 1
  store ptr %41, ptr %40, align 8
  %42 = getelementptr inbounds nuw %"struct.std::_Rb_tree_const_iterator", ptr %8, i32 0, i32 0
  %43 = load ptr, ptr %42, align 8
  %44 = getelementptr inbounds nuw %"struct.std::_Rb_tree_const_iterator", ptr %9, i32 0, i32 0
  %45 = load ptr, ptr %44, align 8
  %46 = getelementptr inbounds nuw %"struct.std::_Rb_tree_const_iterator", ptr %10, i32 0, i32 0
  %47 = load ptr, ptr %46, align 8
  %48 = getelementptr inbounds nuw %"struct.std::_Rb_tree_const_iterator", ptr %11, i32 0, i32 0
  %49 = load ptr, ptr %48, align 8
  %50 = getelementptr inbounds nuw { ptr, ptr }, ptr %12, i32 0, i32 0
  %51 = load ptr, ptr %50, align 8
  %52 = getelementptr inbounds nuw { ptr, ptr }, ptr %12, i32 0, i32 1
  %53 = load ptr, ptr %52, align 8
  %54 = invoke { ptr, ptr } @_ZSt5mergeISt23_Rb_tree_const_iteratorIN32pxrInternal_v0_24__pxrReserved__7SdfPathEES3_St15insert_iteratorISt3setIS2_St4lessIS2_ESaIS2_EEEET1_T_SC_T0_SD_SB_(ptr %43, ptr %45, ptr %47, ptr %49, ptr %51, ptr %53)
          to label %55 unwind label %60

55:                                               ; preds = %37
  %56 = getelementptr inbounds nuw { ptr, ptr }, ptr %16, i32 0, i32 0
  %57 = extractvalue { ptr, ptr } %54, 0
  store ptr %57, ptr %56, align 8
  %58 = getelementptr inbounds nuw { ptr, ptr }, ptr %16, i32 0, i32 1
  %59 = extractvalue { ptr, ptr } %54, 1
  store ptr %59, ptr %58, align 8
  call void @_ZNSt3setIN32pxrInternal_v0_24__pxrReserved__7SdfPathESt4lessIS1_ESaIS1_EED2Ev(ptr noundef nonnull align 8 dereferenceable(48) %7) #12
  ret void

60:                                               ; preds = %37, %3
  %61 = landingpad { ptr, i32 }
          cleanup
  %62 = extractvalue { ptr, i32 } %61, 0
  store ptr %62, ptr %14, align 8
  %63 = extractvalue { ptr, i32 } %61, 1
  store i32 %63, ptr %15, align 4
  call void @_ZNSt3setIN32pxrInternal_v0_24__pxrReserved__7SdfPathESt4lessIS1_ESaIS1_EED2Ev(ptr noundef nonnull align 8 dereferenceable(48) %7) #12
  br label %64

64:                                               ; preds = %60
  %65 = load ptr, ptr %14, align 8
  %66 = load i32, ptr %15, align 4
  %67 = insertvalue { ptr, i32 } poison, ptr %65, 0
  %68 = insertvalue { ptr, i32 } %67, i32 %66, 1
  resume { ptr, i32 } %68
}