; Function Attrs: mustprogress uwtable
define void @_ZN32pxrInternal_v0_24__pxrReserved__26UsdImaging_CollectionCache27_MarkCollectionContentDirtyERKNS_9TfWeakPtrINS_8UsdStageEEERKNS_29Usd_CollectionMembershipQueryINS_38UsdObjectCollectionExpressionEvaluatorEEE(ptr noundef nonnull align 8 dereferenceable(312) %0, ptr noundef nonnull align 8 dereferenceable(16) %1, ptr noundef nonnull align 8 dereferenceable(184) %2) local_unnamed_addr #0 align 2 personality ptr @__gxx_personality_v0 {
  %4 = alloca %"class.std::set", align 8
  call void @_ZN32pxrInternal_v0_24__pxrReserved__37UsdComputeIncludedPathsFromCollectionERKNS_29Usd_CollectionMembershipQueryINS_38UsdObjectCollectionExpressionEvaluatorEEERKNS_9TfWeakPtrINS_8UsdStageEEERKNS_22Usd_PrimFlagsPredicateE(ptr dead_on_unwind nonnull writable sret(%"class.std::set") align 8 %4, ptr noundef nonnull align 8 dereferenceable(184) %2, ptr noundef nonnull align 8 dereferenceable(16) %1, ptr noundef nonnull align 8 dereferenceable(17) @_ZN32pxrInternal_v0_24__pxrReserved__23UsdPrimDefaultPredicateE)
  %5 = getelementptr inbounds nuw i8, ptr %0, i64 224
  %6 = getelementptr inbounds i8, ptr %0, i64 248
  %7 = load ptr, ptr %6, align 8
  %8 = getelementptr inbounds i8, ptr %0, i64 232
  %9 = getelementptr inbounds i8, ptr %4, i64 24
  %10 = load ptr, ptr %9, align 8
  %11 = getelementptr inbounds i8, ptr %4, i64 8
  %12 = invoke { ptr, ptr } @_ZSt7__mergeISt23_Rb_tree_const_iteratorIN32pxrInternal_v0_24__pxrReserved__7SdfPathEES3_St15insert_iteratorISt3setIS2_St4lessIS2_ESaIS2_EEEN9__gnu_cxx5__ops15_Iter_less_iterEET1_T_SF_T0_SG_SE_T2_(ptr %7, ptr nonnull %8, ptr %10, ptr nonnull %11, ptr nonnull %5, ptr %7)
          to label %_ZSt5mergeISt23_Rb_tree_const_iteratorIN32pxrInternal_v0_24__pxrReserved__7SdfPathEES3_St15insert_iteratorISt3setIS2_St4lessIS2_ESaIS2_EEEET1_T_SC_T0_SD_SB_.exit unwind label %18

_ZSt5mergeISt23_Rb_tree_const_iteratorIN32pxrInternal_v0_24__pxrReserved__7SdfPathEES3_St15insert_iteratorISt3setIS2_St4lessIS2_ESaIS2_EEEET1_T_SC_T0_SD_SB_.exit: ; preds = %3
  %13 = getelementptr inbounds i8, ptr %4, i64 16
  %14 = load ptr, ptr %13, align 8
  invoke void @_ZNSt8_Rb_treeIN32pxrInternal_v0_24__pxrReserved__7SdfPathES1_St9_IdentityIS1_ESt4lessIS1_ESaIS1_EE8_M_eraseEPSt13_Rb_tree_nodeIS1_E(ptr noundef nonnull align 8 dereferenceable(48) %4, ptr noundef %14)
          to label %_ZNSt3setIN32pxrInternal_v0_24__pxrReserved__7SdfPathESt4lessIS1_ESaIS1_EED2Ev.exit unwind label %15

15:                                               ; preds = %_ZSt5mergeISt23_Rb_tree_const_iteratorIN32pxrInternal_v0_24__pxrReserved__7SdfPathEES3_St15insert_iteratorISt3setIS2_St4lessIS2_ESaIS2_EEEET1_T_SC_T0_SD_SB_.exit
  %16 = landingpad { ptr, i32 }
          catch ptr null
  %17 = extractvalue { ptr, i32 } %16, 0
  call void @__clang_call_terminate(ptr %17) #16
  unreachable

_ZNSt3setIN32pxrInternal_v0_24__pxrReserved__7SdfPathESt4lessIS1_ESaIS1_EED2Ev.exit: ; preds = %_ZSt5mergeISt23_Rb_tree_const_iteratorIN32pxrInternal_v0_24__pxrReserved__7SdfPathEES3_St15insert_iteratorISt3setIS2_St4lessIS2_ESaIS2_EEEET1_T_SC_T0_SD_SB_.exit
  ret void

18:                                               ; preds = %3
  %19 = landingpad { ptr, i32 }
          cleanup
  call void @_ZNSt3setIN32pxrInternal_v0_24__pxrReserved__7SdfPathESt4lessIS1_ESaIS1_EED2Ev(ptr noundef nonnull align 8 dereferenceable(48) %4) #17
  resume { ptr, i32 } %19
}